target datalayout = "e-m:e-p270:32:32-p271:32:32-p272:64:64-i64:64-i128:128-f80:128-n8:16:32:64-S128"
target triple = "x86_64-pc-linux-gnu"

%"class.Imath_3_2::Vec2" = type { float, float }
%"class.Imath_3_2::Box" = type { %"class.Imath_3_2::Vec2.0", %"class.Imath_3_2::Vec2.0" }
%"class.Imath_3_2::Vec2.0" = type { i32, i32 }

; Function Attrs: mustprogress nounwind uwtable
define linkonce_odr hidden noundef i32 @_ZNSt14numeric_limitsIiE3minEv() #8 comdat align 2 {
  ret i32 -2147483648
}

; Function Attrs: mustprogress nounwind uwtable
define linkonce_odr hidden noundef i32 @_ZNSt14numeric_limitsIiE6lowestEv() #8 comdat align 2 {
  %1 = call noundef i32 @_ZNSt14numeric_limitsIiE3minEv() #3
  ret i32 %1
}

; Function Attrs: mustprogress nounwind uwtable
define linkonce_odr hidden noundef i32 @_ZNSt14numeric_limitsIiE3maxEv() #8 comdat align 2 {
  ret i32 2147483647
}

; Function Attrs: mustprogress nounwind uwtable
define linkonce_odr hidden noundef i32 @_ZN9Imath_3_24Vec2IiE14baseTypeLowestEv() #8 comdat align 2 {
  %1 = call noundef i32 @_ZNSt14numeric_limitsIiE6lowestEv() #3
  ret i32 %1
}

; Function Attrs: inlinehint mustprogress nounwind uwtable
define linkonce_odr hidden noundef nonnull align 4 dereferenceable(8) ptr @_ZN9Imath_3_24Vec2IiEaSERKS1_(ptr noundef nonnull align 4 dereferenceable(8) %0, ptr noundef nonnull align 4 dereferenceable(8) %1) #6 comdat align 2 {
  %3 = alloca ptr, align 8
  %4 = alloca ptr, align 8
  store ptr %0, ptr %3, align 8, !tbaa !34
  store ptr %1, ptr %4, align 8, !tbaa !34
  %5 = load ptr, ptr %3, align 8
  %6 = load ptr, ptr %4, align 8, !tbaa !34
  %7 = getelementptr inbounds nuw %"class.Imath_3_2::Vec2.0", ptr %6, i32 0, i32 0
  %8 = load i32, ptr %7, align 4, !tbaa !36
  %9 = getelementptr inbounds nuw %"class.Imath_3_2::Vec2.0", ptr %5, i32 0, i32 0
  store i32 %8, ptr %9, align 4, !tbaa !36
  %10 = load ptr, ptr %4, align 8, !tbaa !34
  %11 = getelementptr inbounds nuw %"class.Imath_3_2::Vec2.0", ptr %10, i32 0, i32 1
  %12 = load i32, ptr %11, align 4, !tbaa !37
  %13 = getelementptr inbounds nuw %"class.Imath_3_2::Vec2.0", ptr %5, i32 0, i32 1
  store i32 %12, ptr %13, align 4, !tbaa !37
  ret ptr %5
}

; Function Attrs: inlinehint mustprogress nounwind uwtable
define linkonce_odr hidden void @_ZN9Imath_3_24Vec2IiEC2Ei(ptr noundef nonnull align 4 dereferenceable(8) %0, i32 noundef %1) unnamed_addr #6 comdat align 2 {
  %3 = alloca ptr, align 8
  %4 = alloca i32, align 4
  store ptr %0, ptr %3, align 8, !tbaa !34
  store i32 %1, ptr %4, align 4, !tbaa !14
  %5 = load ptr, ptr %3, align 8
  %6 = getelementptr inbounds nuw %"class.Imath_3_2::Vec2.0", ptr %5, i32 0, i32 0
  %7 = load i32, ptr %4, align 4, !tbaa !14
  store i32 %7, ptr %6, align 4, !tbaa !36
  %8 = getelementptr inbounds nuw %"class.Imath_3_2::Vec2.0", ptr %5, i32 0, i32 1
  %9 = load i32, ptr %4, align 4, !tbaa !14
  store i32 %9, ptr %8, align 4, !tbaa !37
  ret void
}

; Function Attrs: mustprogress nounwind uwtable
define linkonce_odr hidden noundef i32 @_ZN9Imath_3_24Vec2IiE11baseTypeMaxEv() #8 comdat align 2 {
  %1 = call noundef i32 @_ZNSt14numeric_limitsIiE3maxEv() #3
  ret i32 %1
}

; Function Attrs: inlinehint mustprogress nounwind uwtable
define linkonce_odr hidden void @_ZN9Imath_3_23BoxINS_4Vec2IiEEE9makeEmptyEv(ptr noundef nonnull align 4 dereferenceable(16) %0) #6 comdat align 2 {
  %2 = alloca ptr, align 8
  %3 = alloca %"class.Imath_3_2::Vec2.0", align 4
  %4 = alloca %"class.Imath_3_2::Vec2.0", align 4
  store ptr %0, ptr %2, align 8, !tbaa !21
  %5 = load ptr, ptr %2, align 8
  call void @llvm.lifetime.start.p0(i64 8, ptr %3) #3
  %6 = call noundef i32 @_ZN9Imath_3_24Vec2IiE11baseTypeMaxEv() #3
  call void @_ZN9Imath_3_24Vec2IiEC2Ei(ptr noundef nonnull align 4 dereferenceable(8) %3, i32 noundef %6) #3
  %7 = getelementptr inbounds nuw %"class.Imath_3_2::Box", ptr %5, i32 0, i32 0
  %8 = call noundef nonnull align 4 dereferenceable(8) ptr @_ZN9Imath_3_24Vec2IiEaSERKS1_(ptr noundef nonnull align 4 dereferenceable(8) %7, ptr noundef nonnull align 4 dereferenceable(8) %3) #3
  call void @llvm.lifetime.end.p0(i64 8, ptr %3) #3
  call void @llvm.lifetime.start.p0(i64 8, ptr %4) #3
  %9 = call noundef i32 @_ZN9Imath_3_24Vec2IiE14baseTypeLowestEv() #3
  call void @_ZN9Imath_3_24Vec2IiEC2Ei(ptr noundef nonnull align 4 dereferenceable(8) %4, i32 noundef %9) #3
  %10 = getelementptr inbounds nuw %"class.Imath_3_2::Box", ptr %5, i32 0, i32 1
  %11 = call noundef nonnull align 4 dereferenceable(8) ptr @_ZN9Imath_3_24Vec2IiEaSERKS1_(ptr noundef nonnull align 4 dereferenceable(8) %10, ptr noundef nonnull align 4 dereferenceable(8) %4) #3
  call void @llvm.lifetime.end.p0(i64 8, ptr %4) #3
  ret void
}

; Function Attrs: inlinehint mustprogress nounwind uwtable
define linkonce_odr hidden void @_ZN9Imath_3_24Vec2IiEC2Ev(ptr noundef nonnull align 4 dereferenceable(8) %0) unnamed_addr #6 comdat align 2 {
  %2 = alloca ptr, align 8
  store ptr %0, ptr %2, align 8, !tbaa !34
  ret void
}

; Function Attrs: inlinehint mustprogress nounwind uwtable
define linkonce_odr noundef nonnull align 4 dereferenceable(4) ptr @_ZSt3minIiERKT_S2_S2_(ptr noundef nonnull align 4 dereferenceable(4) %0, ptr noundef nonnull align 4 dereferenceable(4) %1) #6 comdat {
  %3 = alloca ptr, align 8
  %4 = alloca ptr, align 8
  %5 = alloca ptr, align 8
  store ptr %0, ptr %4, align 8, !tbaa !29
  store ptr %1, ptr %5, align 8, !tbaa !29
  %6 = load ptr, ptr %5, align 8, !tbaa !29
  %7 = load i32, ptr %6, align 4, !tbaa !14
  %8 = load ptr, ptr %4, align 8, !tbaa !29
  %9 = load i32, ptr %8, align 4, !tbaa !14
  %10 = icmp slt i32 %7, %9
  br i1 %10, label %11, label %13

11:                                               ; preds = %2
  %12 = load ptr, ptr %5, align 8, !tbaa !29
  store ptr %12, ptr %3, align 8
  br label %15

13:                                               ; preds = %2
  %14 = load ptr, ptr %4, align 8, !tbaa !29
  store ptr %14, ptr %3, align 8
  br label %15

15:                                               ; preds = %13, %11
  %16 = load ptr, ptr %3, align 8
  ret ptr %16
}

; Function Attrs: inlinehint mustprogress nounwind uwtable
define linkonce_odr hidden void @_ZN9Imath_3_23BoxINS_4Vec2IiEEEC2Ev(ptr noundef nonnull align 4 dereferenceable(16) %0) unnamed_addr #6 comdat align 2 {
  %2 = alloca ptr, align 8
  store ptr %0, ptr %2, align 8, !tbaa !21
  %3 = load ptr, ptr %2, align 8
  %4 = getelementptr inbounds nuw %"class.Imath_3_2::Box", ptr %3, i32 0, i32 0
  call void @_ZN9Imath_3_24Vec2IiEC2Ev(ptr noundef nonnull align 4 dereferenceable(8) %4) #3
  %5 = getelementptr inbounds nuw %"class.Imath_3_2::Box", ptr %3, i32 0, i32 1
  call void @_ZN9Imath_3_24Vec2IiEC2Ev(ptr noundef nonnull align 4 dereferenceable(8) %5) #3
  call void @_ZN9Imath_3_23BoxINS_4Vec2IiEEE9makeEmptyEv(ptr noundef nonnull align 4 dereferenceable(16) %3) #3
  ret void
}

; Function Attrs: mustprogress uwtable
define noundef i32 @_ZN7Imf_3_47CubeMap10sizeOfFaceERKN9Imath_3_23BoxINS1_4Vec2IiEEEE(ptr noundef nonnull align 4 dereferenceable(16) %0) #4 {
  %2 = alloca ptr, align 8
  %3 = alloca i32, align 4
  %4 = alloca i32, align 4
  store ptr %0, ptr %2, align 8, !tbaa !21
  call void @llvm.lifetime.start.p0(i64 4, ptr %3) #3
  %5 = load ptr, ptr %2, align 8, !tbaa !21
  %6 = getelementptr inbounds nuw %"class.Imath_3_2::Box", ptr %5, i32 0, i32 1
  %7 = getelementptr inbounds nuw %"class.Imath_3_2::Vec2.0", ptr %6, i32 0, i32 0
  %8 = load i32, ptr %7, align 4, !tbaa !27
  %9 = load ptr, ptr %2, align 8, !tbaa !21
  %10 = getelementptr inbounds nuw %"class.Imath_3_2::Box", ptr %9, i32 0, i32 0
  %11 = getelementptr inbounds nuw %"class.Imath_3_2::Vec2.0", ptr %10, i32 0, i32 0
  %12 = load i32, ptr %11, align 4, !tbaa !28
  %13 = sub nsw i32 %8, %12
  %14 = add nsw i32 %13, 1
  store i32 %14, ptr %3, align 4, !tbaa !14
  call void @llvm.lifetime.start.p0(i64 4, ptr %4) #3
  %15 = load ptr, ptr %2, align 8, !tbaa !21
  %16 = getelementptr inbounds nuw %"class.Imath_3_2::Box", ptr %15, i32 0, i32 1
  %17 = getelementptr inbounds nuw %"class.Imath_3_2::Vec2.0", ptr %16, i32 0, i32 1
  %18 = load i32, ptr %17, align 4, !tbaa !23
  %19 = load ptr, ptr %2, align 8, !tbaa !21
  %20 = getelementptr inbounds nuw %"class.Imath_3_2::Box", ptr %19, i32 0, i32 0
  %21 = getelementptr inbounds nuw %"class.Imath_3_2::Vec2.0", ptr %20, i32 0, i32 1
  %22 = load i32, ptr %21, align 4, !tbaa !26
  %23 = sub nsw i32 %18, %22
  %24 = add nsw i32 %23, 1
  %25 = sdiv i32 %24, 6
  store i32 %25, ptr %4, align 4, !tbaa !14
  %26 = call noundef nonnull align 4 dereferenceable(4) ptr @_ZSt3minIiERKT_S2_S2_(ptr noundef nonnull align 4 dereferenceable(4) %3, ptr noundef nonnull align 4 dereferenceable(4) %4)
  %27 = load i32, ptr %26, align 4, !tbaa !14
  call void @llvm.lifetime.end.p0(i64 4, ptr %4) #3
  call void @llvm.lifetime.end.p0(i64 4, ptr %3) #3
  ret i32 %27
}

; Function Attrs: inlinehint mustprogress nounwind uwtable
define linkonce_odr hidden void @_ZN9Imath_3_24Vec2IfEC2Eff(ptr noundef nonnull align 4 dereferenceable(8) %0, float noundef %1, float noundef %2) unnamed_addr #6 comdat align 2 {
  %4 = alloca ptr, align 8
  %5 = alloca float, align 4
  %6 = alloca float, align 4
  store ptr %0, ptr %4, align 8, !tbaa !16
  store float %1, ptr %5, align 4, !tbaa !12
  store float %2, ptr %6, align 4, !tbaa !12
  %7 = load ptr, ptr %4, align 8
  %8 = getelementptr inbounds nuw %"class.Imath_3_2::Vec2", ptr %7, i32 0, i32 0
  %9 = load float, ptr %5, align 4, !tbaa !12
  store float %9, ptr %8, align 4, !tbaa !18
  %10 = getelementptr inbounds nuw %"class.Imath_3_2::Vec2", ptr %7, i32 0, i32 1
  %11 = load float, ptr %6, align 4, !tbaa !12
  store float %11, ptr %10, align 4, !tbaa !20
  ret void
}

; Function Attrs: mustprogress uwtable
define void @_ZN7Imf_3_47CubeMap17dataWindowForFaceENS_11CubeMapFaceERKN9Imath_3_23BoxINS2_4Vec2IiEEEE(ptr dead_on_unwind noalias writable sret(%"class.Imath_3_2::Box") align 4 %0, i32 noundef %1, ptr noundef nonnull align 4 dereferenceable(16) %2) #4 {
  %4 = alloca ptr, align 8
  %5 = alloca i32, align 4
  %6 = alloca ptr, align 8
  %7 = alloca i32, align 4
  store ptr %0, ptr %4, align 8
  store i32 %1, ptr %5, align 4, !tbaa !31
  store ptr %2, ptr %6, align 8, !tbaa !21
  call void @llvm.lifetime.start.p0(i64 4, ptr %7) #3
  %8 = load ptr, ptr %6, align 8, !tbaa !21
  %9 = call noundef i32 @_ZN7Imf_3_47CubeMap10sizeOfFaceERKN9Imath_3_23BoxINS1_4Vec2IiEEEE(ptr noundef nonnull align 4 dereferenceable(16) %8)
  store i32 %9, ptr %7, align 4, !tbaa !14
  call void @_ZN9Imath_3_23BoxINS_4Vec2IiEEEC2Ev(ptr noundef nonnull align 4 dereferenceable(16) %0) #3
  %10 = getelementptr inbounds nuw %"class.Imath_3_2::Box", ptr %0, i32 0, i32 0
  %11 = getelementptr inbounds nuw %"class.Imath_3_2::Vec2.0", ptr %10, i32 0, i32 0
  store i32 0, ptr %11, align 4, !tbaa !28
  %12 = load i32, ptr %5, align 4, !tbaa !31
  %13 = load i32, ptr %7, align 4, !tbaa !14
  %14 = mul nsw i32 %12, %13
  %15 = getelementptr inbounds nuw %"class.Imath_3_2::Box", ptr %0, i32 0, i32 0
  %16 = getelementptr inbounds nuw %"class.Imath_3_2::Vec2.0", ptr %15, i32 0, i32 1
  store i32 %14, ptr %16, align 4, !tbaa !26
  %17 = getelementptr inbounds nuw %"class.Imath_3_2::Box", ptr %0, i32 0, i32 0
  %18 = getelementptr inbounds nuw %"class.Imath_3_2::Vec2.0", ptr %17, i32 0, i32 0
  %19 = load i32, ptr %18, align 4, !tbaa !28
  %20 = load i32, ptr %7, align 4, !tbaa !14
  %21 = add nsw i32 %19, %20
  %22 = sub nsw i32 %21, 1
  %23 = getelementptr inbounds nuw %"class.Imath_3_2::Box", ptr %0, i32 0, i32 1
  %24 = getelementptr inbounds nuw %"class.Imath_3_2::Vec2.0", ptr %23, i32 0, i32 0
  store i32 %22, ptr %24, align 4, !tbaa !27
  %25 = getelementptr inbounds nuw %"class.Imath_3_2::Box", ptr %0, i32 0, i32 0
  %26 = getelementptr inbounds nuw %"class.Imath_3_2::Vec2.0", ptr %25, i32 0, i32 1
  %27 = load i32, ptr %26, align 4, !tbaa !26
  %28 = load i32, ptr %7, align 4, !tbaa !14
  %29 = add nsw i32 %27, %28
  %30 = sub nsw i32 %29, 1
  %31 = getelementptr inbounds nuw %"class.Imath_3_2::Box", ptr %0, i32 0, i32 1
  %32 = getelementptr inbounds nuw %"class.Imath_3_2::Vec2.0", ptr %31, i32 0, i32 1
  store i32 %30, ptr %32, align 4, !tbaa !23
  call void @llvm.lifetime.end.p0(i64 4, ptr %7) #3
  ret void
}

; Function Attrs: mustprogress uwtable
define void @_ZN7Imf_3_47CubeMap13pixelPositionENS_11CubeMapFaceERKN9Imath_3_23BoxINS2_4Vec2IiEEEENS4_IfEE(ptr dead_on_unwind noalias writable sret(%"class.Imath_3_2::Vec2") align 4 %0, i32 noundef %1, ptr noundef nonnull align 4 dereferenceable(16) %2, ptr noundef %3) #4 {
  %5 = alloca ptr, align 8
  %6 = alloca i32, align 4
  %7 = alloca ptr, align 8
  %8 = alloca ptr, align 8
  %9 = alloca %"class.Imath_3_2::Box", align 4
  store ptr %0, ptr %5, align 8
  store i32 %1, ptr %6, align 4, !tbaa !31
  store ptr %2, ptr %7, align 8, !tbaa !21
  store ptr %3, ptr %8, align 8, !tbaa !16
  call void @llvm.lifetime.start.p0(i64 16, ptr %9) #3
  %10 = load i32, ptr %6, align 4, !tbaa !31
  %11 = load ptr, ptr %7, align 8, !tbaa !21
  call void @_ZN7Imf_3_47CubeMap17dataWindowForFaceENS_11CubeMapFaceERKN9Imath_3_23BoxINS2_4Vec2IiEEEE(ptr dead_on_unwind writable sret(%"class.Imath_3_2::Box") align 4 %9, i32 noundef %10, ptr noundef nonnull align 4 dereferenceable(16) %11)
  call void @_ZN9Imath_3_24Vec2IfEC2Eff(ptr noundef nonnull align 4 dereferenceable(8) %0, float noundef 0.000000e+00, float noundef 0.000000e+00) #3
  %12 = load i32, ptr %6, align 4, !tbaa !31
  switch i32 %12, label %115 [
    i32 0, label %13
    i32 1, label %30
    i32 2, label %47
    i32 3, label %64
    i32 4, label %81
    i32 5, label %98
  ]

13:                                               ; preds = %4
  %14 = getelementptr inbounds nuw %"class.Imath_3_2::Box", ptr %9, i32 0, i32 0
  %15 = getelementptr inbounds nuw %"class.Imath_3_2::Vec2.0", ptr %14, i32 0, i32 0
  %16 = load i32, ptr %15, align 4, !tbaa !28
  %17 = sitofp i32 %16 to float
  %18 = getelementptr inbounds nuw %"class.Imath_3_2::Vec2", ptr %3, i32 0, i32 1
  %19 = load float, ptr %18, align 4, !tbaa !20
  %20 = fadd float %17, %19
  %21 = getelementptr inbounds nuw %"class.Imath_3_2::Vec2", ptr %0, i32 0, i32 0
  store float %20, ptr %21, align 4, !tbaa !18
  %22 = getelementptr inbounds nuw %"class.Imath_3_2::Box", ptr %9, i32 0, i32 1
  %23 = getelementptr inbounds nuw %"class.Imath_3_2::Vec2.0", ptr %22, i32 0, i32 1
  %24 = load i32, ptr %23, align 4, !tbaa !23
  %25 = sitofp i32 %24 to float
  %26 = getelementptr inbounds nuw %"class.Imath_3_2::Vec2", ptr %3, i32 0, i32 0
  %27 = load float, ptr %26, align 4, !tbaa !18
  %28 = fsub float %25, %27
  %29 = getelementptr inbounds nuw %"class.Imath_3_2::Vec2", ptr %0, i32 0, i32 1
  store float %28, ptr %29, align 4, !tbaa !20
  br label %115

30:                                               ; preds = %4
  %31 = getelementptr inbounds nuw %"class.Imath_3_2::Box", ptr %9, i32 0, i32 1
  %32 = getelementptr inbounds nuw %"class.Imath_3_2::Vec2.0", ptr %31, i32 0, i32 0
  %33 = load i32, ptr %32, align 4, !tbaa !27
  %34 = sitofp i32 %33 to float
  %35 = getelementptr inbounds nuw %"class.Imath_3_2::Vec2", ptr %3, i32 0, i32 1
  %36 = load float, ptr %35, align 4, !tbaa !20
  %37 = fsub float %34, %36
  %38 = getelementptr inbounds nuw %"class.Imath_3_2::Vec2", ptr %0, i32 0, i32 0
  store float %37, ptr %38, align 4, !tbaa !18
  %39 = getelementptr inbounds nuw %"class.Imath_3_2::Box", ptr %9, i32 0, i32 1
  %40 = getelementptr inbounds nuw %"class.Imath_3_2::Vec2.0", ptr %39, i32 0, i32 1
  %41 = load i32, ptr %40, align 4, !tbaa !23
  %42 = sitofp i32 %41 to float
  %43 = getelementptr inbounds nuw %"class.Imath_3_2::Vec2", ptr %3, i32 0, i32 0
  %44 = load float, ptr %43, align 4, !tbaa !18
  %45 = fsub float %42, %44
  %46 = getelementptr inbounds nuw %"class.Imath_3_2::Vec2", ptr %0, i32 0, i32 1
  store float %45, ptr %46, align 4, !tbaa !20
  br label %115

47:                                               ; preds = %4
  %48 = getelementptr inbounds nuw %"class.Imath_3_2::Box", ptr %9, i32 0, i32 0
  %49 = getelementptr inbounds nuw %"class.Imath_3_2::Vec2.0", ptr %48, i32 0, i32 0
  %50 = load i32, ptr %49, align 4, !tbaa !28
  %51 = sitofp i32 %50 to float
  %52 = getelementptr inbounds nuw %"class.Imath_3_2::Vec2", ptr %3, i32 0, i32 0
  %53 = load float, ptr %52, align 4, !tbaa !18
  %54 = fadd float %51, %53
  %55 = getelementptr inbounds nuw %"class.Imath_3_2::Vec2", ptr %0, i32 0, i32 0
  store float %54, ptr %55, align 4, !tbaa !18
  %56 = getelementptr inbounds nuw %"class.Imath_3_2::Box", ptr %9, i32 0, i32 1
  %57 = getelementptr inbounds nuw %"class.Imath_3_2::Vec2.0", ptr %56, i32 0, i32 1
  %58 = load i32, ptr %57, align 4, !tbaa !23
  %59 = sitofp i32 %58 to float
  %60 = getelementptr inbounds nuw %"class.Imath_3_2::Vec2", ptr %3, i32 0, i32 1
  %61 = load float, ptr %60, align 4, !tbaa !20
  %62 = fsub float %59, %61
  %63 = getelementptr inbounds nuw %"class.Imath_3_2::Vec2", ptr %0, i32 0, i32 1
  store float %62, ptr %63, align 4, !tbaa !20
  br label %115

64:                                               ; preds = %4
  %65 = getelementptr inbounds nuw %"class.Imath_3_2::Box", ptr %9, i32 0, i32 0
  %66 = getelementptr inbounds nuw %"class.Imath_3_2::Vec2.0", ptr %65, i32 0, i32 0
  %67 = load i32, ptr %66, align 4, !tbaa !28
  %68 = sitofp i32 %67 to float
  %69 = getelementptr inbounds nuw %"class.Imath_3_2::Vec2", ptr %3, i32 0, i32 0
  %70 = load float, ptr %69, align 4, !tbaa !18
  %71 = fadd float %68, %70
  %72 = getelementptr inbounds nuw %"class.Imath_3_2::Vec2", ptr %0, i32 0, i32 0
  store float %71, ptr %72, align 4, !tbaa !18
  %73 = getelementptr inbounds nuw %"class.Imath_3_2::Box", ptr %9, i32 0, i32 0
  %74 = getelementptr inbounds nuw %"class.Imath_3_2::Vec2.0", ptr %73, i32 0, i32 1
  %75 = load i32, ptr %74, align 4, !tbaa !26
  %76 = sitofp i32 %75 to float
  %77 = getelementptr inbounds nuw %"class.Imath_3_2::Vec2", ptr %3, i32 0, i32 1
  %78 = load float, ptr %77, align 4, !tbaa !20
  %79 = fadd float %76, %78
  %80 = getelementptr inbounds nuw %"class.Imath_3_2::Vec2", ptr %0, i32 0, i32 1
  store float %79, ptr %80, align 4, !tbaa !20
  br label %115

81:                                               ; preds = %4
  %82 = getelementptr inbounds nuw %"class.Imath_3_2::Box", ptr %9, i32 0, i32 1
  %83 = getelementptr inbounds nuw %"class.Imath_3_2::Vec2.0", ptr %82, i32 0, i32 0
  %84 = load i32, ptr %83, align 4, !tbaa !27
  %85 = sitofp i32 %84 to float
  %86 = getelementptr inbounds nuw %"class.Imath_3_2::Vec2", ptr %3, i32 0, i32 0
  %87 = load float, ptr %86, align 4, !tbaa !18
  %88 = fsub float %85, %87
  %89 = getelementptr inbounds nuw %"class.Imath_3_2::Vec2", ptr %0, i32 0, i32 0
  store float %88, ptr %89, align 4, !tbaa !18
  %90 = getelementptr inbounds nuw %"class.Imath_3_2::Box", ptr %9, i32 0, i32 1
  %91 = getelementptr inbounds nuw %"class.Imath_3_2::Vec2.0", ptr %90, i32 0, i32 1
  %92 = load i32, ptr %91, align 4, !tbaa !23
  %93 = sitofp i32 %92 to float
  %94 = getelementptr inbounds nuw %"class.Imath_3_2::Vec2", ptr %3, i32 0, i32 1
  %95 = load float, ptr %94, align 4, !tbaa !20
  %96 = fsub float %93, %95
  %97 = getelementptr inbounds nuw %"class.Imath_3_2::Vec2", ptr %0, i32 0, i32 1
  store float %96, ptr %97, align 4, !tbaa !20
  br label %115

98:                                               ; preds = %4
  %99 = getelementptr inbounds nuw %"class.Imath_3_2::Box", ptr %9, i32 0, i32 0
  %100 = getelementptr inbounds nuw %"class.Imath_3_2::Vec2.0", ptr %99, i32 0, i32 0
  %101 = load i32, ptr %100, align 4, !tbaa !28
  %102 = sitofp i32 %101 to float
  %103 = getelementptr inbounds nuw %"class.Imath_3_2::Vec2", ptr %3, i32 0, i32 0
  %104 = load float, ptr %103, align 4, !tbaa !18
  %105 = fadd float %102, %104
  %106 = getelementptr inbounds nuw %"class.Imath_3_2::Vec2", ptr %0, i32 0, i32 0
  store float %105, ptr %106, align 4, !tbaa !18
  %107 = getelementptr inbounds nuw %"class.Imath_3_2::Box", ptr %9, i32 0, i32 1
  %108 = getelementptr inbounds nuw %"class.Imath_3_2::Vec2.0", ptr %107, i32 0, i32 1
  %109 = load i32, ptr %108, align 4, !tbaa !23
  %110 = sitofp i32 %109 to float
  %111 = getelementptr inbounds nuw %"class.Imath_3_2::Vec2", ptr %3, i32 0, i32 1
  %112 = load float, ptr %111, align 4, !tbaa !20
  %113 = fsub float %110, %112
  %114 = getelementptr inbounds nuw %"class.Imath_3_2::Vec2", ptr %0, i32 0, i32 1
  store float %113, ptr %114, align 4, !tbaa !20
  br label %115

115:                                              ; preds = %4, %98, %81, %64, %47, %30, %13
  call void @llvm.lifetime.end.p0(i64 16, ptr %9) #3
  ret void
}