; Function Attrs: mustprogress nofree norecurse nosync nounwind willreturn memory(argmem: readwrite) uwtable
define void @_ZN7Imf_3_47CubeMap13pixelPositionENS_11CubeMapFaceERKN9Imath_3_23BoxINS2_4Vec2IiEEEENS4_IfEE(ptr dead_on_unwind noalias writable writeonly sret(%"class.Imath_3_2::Vec2") align 4 captures(none) initializes((0, 8)) %0, i32 noundef %1, ptr noundef nonnull readonly align 4 captures(none) dereferenceable(16) %2, ptr noundef readonly captures(none) %3) local_unnamed_addr #5 {
  %5 = getelementptr inbounds nuw i8, ptr %2, i64 8
  %6 = load i32, ptr %5, align 4, !tbaa !20, !noalias !31
  %7 = load i32, ptr %2, align 4, !tbaa !21, !noalias !31
  %8 = add i32 %6, 1
  %9 = sub i32 %8, %7
  %10 = getelementptr inbounds nuw i8, ptr %2, i64 12
  %11 = load i32, ptr %10, align 4, !tbaa !16, !noalias !31
  %12 = getelementptr inbounds nuw i8, ptr %2, i64 4
  %13 = load i32, ptr %12, align 4, !tbaa !19, !noalias !31
  %14 = add i32 %11, 1
  %15 = sub i32 %14, %13
  %16 = sdiv i32 %15, 6
  %.sroa.speculated.i.i = tail call noundef range(i32 -2147483647, 357913942) i32 @llvm.smin.i32(i32 %16, i32 %9)
  %17 = mul nsw i32 %.sroa.speculated.i.i, %1
  %18 = add nsw i32 %.sroa.speculated.i.i, -1
  %19 = add i32 %18, %17
  store float 0.000000e+00, ptr %0, align 4, !tbaa !13
  %20 = getelementptr inbounds nuw i8, ptr %0, i64 4
  store float 0.000000e+00, ptr %20, align 4, !tbaa !15
  switch i32 %1, label %65 [
    i32 0, label %21
    i32 1, label %28
    i32 2, label %36
    i32 3, label %43
    i32 4, label %50
    i32 5, label %58
  ]

21:                                               ; preds = %4
  %22 = getelementptr inbounds nuw i8, ptr %3, i64 4
  %23 = load float, ptr %22, align 4, !tbaa !15
  %24 = fadd float %23, 0.000000e+00
  store float %24, ptr %0, align 4, !tbaa !13
  %25 = sitofp i32 %19 to float
  %26 = load float, ptr %3, align 4, !tbaa !13
  %27 = fsub float %25, %26
  br label %.sink.split

28:                                               ; preds = %4
  %29 = sitofp i32 %18 to float
  %30 = getelementptr inbounds nuw i8, ptr %3, i64 4
  %31 = load float, ptr %30, align 4, !tbaa !15
  %32 = fsub float %29, %31
  store float %32, ptr %0, align 4, !tbaa !13
  %33 = sitofp i32 %19 to float
  %34 = load float, ptr %3, align 4, !tbaa !13
  %35 = fsub float %33, %34
  br label %.sink.split

36:                                               ; preds = %4
  %37 = load float, ptr %3, align 4, !tbaa !13
  %38 = fadd float %37, 0.000000e+00
  store float %38, ptr %0, align 4, !tbaa !13
  %39 = sitofp i32 %19 to float
  %40 = getelementptr inbounds nuw i8, ptr %3, i64 4
  %41 = load float, ptr %40, align 4, !tbaa !15
  %42 = fsub float %39, %41
  br label %.sink.split

43:                                               ; preds = %4
  %44 = load float, ptr %3, align 4, !tbaa !13
  %45 = fadd float %44, 0.000000e+00
  store float %45, ptr %0, align 4, !tbaa !13
  %46 = sitofp i32 %17 to float
  %47 = getelementptr inbounds nuw i8, ptr %3, i64 4
  %48 = load float, ptr %47, align 4, !tbaa !15
  %49 = fadd float %48, %46
  br label %.sink.split

50:                                               ; preds = %4
  %51 = sitofp i32 %18 to float
  %52 = load float, ptr %3, align 4, !tbaa !13
  %53 = fsub float %51, %52
  store float %53, ptr %0, align 4, !tbaa !13
  %54 = sitofp i32 %19 to float
  %55 = getelementptr inbounds nuw i8, ptr %3, i64 4
  %56 = load float, ptr %55, align 4, !tbaa !15
  %57 = fsub float %54, %56
  br label %.sink.split

58:                                               ; preds = %4
  %59 = load float, ptr %3, align 4, !tbaa !13
  %60 = fadd float %59, 0.000000e+00
  store float %60, ptr %0, align 4, !tbaa !13
  %61 = sitofp i32 %19 to float
  %62 = getelementptr inbounds nuw i8, ptr %3, i64 4
  %63 = load float, ptr %62, align 4, !tbaa !15
  %64 = fsub float %61, %63
  br label %.sink.split

.sink.split:                                      ; preds = %21, %28, %36, %43, %50, %58
  %.sink = phi float [ %64, %58 ], [ %57, %50 ], [ %49, %43 ], [ %42, %36 ], [ %35, %28 ], [ %27, %21 ]
  store float %.sink, ptr %20, align 4, !tbaa !15
  br label %65

65:                                               ; preds = %.sink.split, %4
  ret void
}